target datalayout = "e-m:e-p270:32:32-p271:32:32-p272:64:64-i64:64-i128:128-f80:128-n8:16:32:64-S128"
target triple = "x86_64-unknown-linux-gnu"

%struct.Object = type { ptr, ptr, ptr, i32, ptr }

@.str.5 = private unnamed_addr constant [17 x i8] c"unnamed-gpio-out\00", align 1
@.str.8 = private unnamed_addr constant [7 x i8] c"%s[%d]\00", align 1
@.str.9 = private unnamed_addr constant [12 x i8] c"/unattached\00", align 1
@.str.10 = private unnamed_addr constant [17 x i8] c"non-qdev-gpio[*]\00", align 1
@error_abort = external global ptr, align 8

; Function Attrs: nounwind sspstrong uwtable
define dso_local void @qdev_connect_gpio_out_named(ptr noundef %dev, ptr noundef %name, i32 noundef %n, ptr noundef %input_pin) #0 {
entry:
  %dev.addr = alloca ptr, align 8
  %name.addr = alloca ptr, align 8
  %n.addr = alloca i32, align 4
  %input_pin.addr = alloca ptr, align 8
  %propname = alloca ptr, align 8
  store ptr %dev, ptr %dev.addr, align 8
  store ptr %name, ptr %name.addr, align 8
  store i32 %n, ptr %n.addr, align 4
  store ptr %input_pin, ptr %input_pin.addr, align 8
  %0 = load ptr, ptr %name.addr, align 8
  %tobool = icmp ne ptr %0, null
  br i1 %tobool, label %cond.true, label %cond.false

cond.true:                                        ; preds = %entry
  %1 = load ptr, ptr %name.addr, align 8
  br label %cond.end

cond.false:                                       ; preds = %entry
  br label %cond.end

cond.end:                                         ; preds = %cond.false, %cond.true
  %cond = phi ptr [ %1, %cond.true ], [ @.str.5, %cond.false ]
  %2 = load i32, ptr %n.addr, align 4
  %call = call noalias ptr (ptr, ...) @g_strdup_printf(ptr noundef @.str.8, ptr noundef %cond, i32 noundef %2)
  store ptr %call, ptr %propname, align 8
  %3 = load ptr, ptr %input_pin.addr, align 8
  %tobool1 = icmp ne ptr %3, null
  br i1 %tobool1, label %land.lhs.true, label %if.end

land.lhs.true:                                    ; preds = %cond.end
  %4 = load ptr, ptr %input_pin.addr, align 8
  %parent = getelementptr inbounds %struct.Object, ptr %4, i32 0, i32 4
  %5 = load ptr, ptr %parent, align 8
  %tobool2 = icmp ne ptr %5, null
  br i1 %tobool2, label %if.end, label %if.then

if.then:                                          ; preds = %land.lhs.true
  %call3 = call ptr @qdev_get_machine()
  %call4 = call ptr @container_get(ptr noundef %call3, ptr noundef @.str.9)
  %6 = load ptr, ptr %input_pin.addr, align 8
  %call5 = call ptr @object_property_add_child(ptr noundef %call4, ptr noundef @.str.10, ptr noundef %6)
  br label %if.end

if.end:                                           ; preds = %if.then, %land.lhs.true, %cond.end
  %7 = load ptr, ptr %dev.addr, align 8
  %8 = load ptr, ptr %propname, align 8
  %9 = load ptr, ptr %input_pin.addr, align 8
  %call6 = call zeroext i1 @object_property_set_link(ptr noundef %7, ptr noundef %8, ptr noundef %9, ptr noundef @error_abort)
  %10 = load ptr, ptr %propname, align 8
  call void @g_free(ptr noundef %10)
  ret void
}