; Function Attrs: nounwind sspstrong uwtable
define dso_local void @qdev_connect_gpio_out_named(ptr noundef %dev, ptr noundef %name, i32 noundef %n, ptr noundef %input_pin) local_unnamed_addr #0 {
entry:
  %tobool.not = icmp eq ptr %name, null
  %cond = select i1 %tobool.not, ptr @.str.5, ptr %name
  %call = tail call noalias ptr (ptr, ...) @g_strdup_printf(ptr noundef nonnull @.str.8, ptr noundef nonnull %cond, i32 noundef %n) #5
  %tobool1.not = icmp eq ptr %input_pin, null
  br i1 %tobool1.not, label %if.end, label %land.lhs.true

land.lhs.true:                                    ; preds = %entry
  %parent = getelementptr inbounds nuw i8, ptr %input_pin, i64 32
  %0 = load ptr, ptr %parent, align 8
  %tobool2.not = icmp eq ptr %0, null
  br i1 %tobool2.not, label %if.then, label %if.end

if.then:                                          ; preds = %land.lhs.true
  %call3 = tail call ptr @qdev_get_machine() #5
  %call4 = tail call ptr @container_get(ptr noundef %call3, ptr noundef nonnull @.str.9) #5
  %call5 = tail call ptr @object_property_add_child(ptr noundef %call4, ptr noundef nonnull @.str.10, ptr noundef nonnull %input_pin) #5
  br label %if.end

if.end:                                           ; preds = %if.then, %land.lhs.true, %entry
  %call6 = tail call zeroext i1 @object_property_set_link(ptr noundef %dev, ptr noundef %call, ptr noundef %input_pin, ptr noundef nonnull @error_abort) #5
  tail call void @g_free(ptr noundef %call) #5
  ret void
}